target datalayout = "e-m:e-p270:32:32-p271:32:32-p272:64:64-i64:64-i128:128-f80:128-n8:16:32:64-S128"
target triple = "x86_64-pc-linux-gnu"

%struct.SnapshotData = type { i32, i32, i32, ptr, i32, ptr, i32, i8, i8, i8, i32, i32, ptr, i32, i32, %struct.pairingheap_node, i64 }
%struct.pairingheap_node = type { ptr, ptr, ptr }
%struct.HeapScanDescData = type { %struct.TableScanDescData, i32, i32, i32, i8, i16, i32, i32, ptr, %struct.HeapTupleData, ptr, i32, i32, ptr, i32, i32, [291 x i16] }
%struct.TableScanDescData = type { ptr, ptr, i32, ptr, %union.anon, i32, ptr }
%union.anon = type { %struct.TBMIterator }
%struct.TBMIterator = type { i8, %union.anon.0 }
%union.anon.0 = type { ptr }
%struct.HeapTupleData = type { i32, %struct.ItemPointerData, i32, ptr }
%struct.ItemPointerData = type { %struct.BlockIdData, i16 }
%struct.BlockIdData = type { i16, i16 }
%struct.BitmapHeapScanDescData = type { %struct.HeapScanDescData, i32, i32 }

; Function Attrs: inlinehint nounwind uwtable
define internal zeroext i1 @BufferIsValid(i32 noundef %0) #3 {
  %2 = alloca i32, align 4
  store i32 %0, ptr %2, align 4
  %3 = load i32, ptr %2, align 4
  %4 = icmp ne i32 %3, 0
  ret i1 %4
}

; Function Attrs: nounwind uwtable
define dso_local void @heap_rescan(ptr noundef %0, ptr noundef %1, i1 noundef zeroext %2, i1 noundef zeroext %3, i1 noundef zeroext %4, i1 noundef zeroext %5) #0 {
  %7 = alloca ptr, align 8
  %8 = alloca ptr, align 8
  %9 = alloca i8, align 1
  %10 = alloca i8, align 1
  %11 = alloca i8, align 1
  %12 = alloca i8, align 1
  %13 = alloca ptr, align 8
  %14 = alloca ptr, align 8
  store ptr %0, ptr %7, align 8
  store ptr %1, ptr %8, align 8
  %15 = zext i1 %2 to i8
  store i8 %15, ptr %9, align 1
  %16 = zext i1 %3 to i8
  store i8 %16, ptr %10, align 1
  %17 = zext i1 %4 to i8
  store i8 %17, ptr %11, align 1
  %18 = zext i1 %5 to i8
  store i8 %18, ptr %12, align 1
  call void @llvm.lifetime.start.p0(i64 8, ptr %13) #10
  %19 = load ptr, ptr %7, align 8
  store ptr %19, ptr %13, align 8
  %20 = load i8, ptr %9, align 1, !range !4, !noundef !5
  %21 = trunc i8 %20 to i1
  br i1 %21, label %22, label %90

22:                                               ; preds = %6
  %23 = load i8, ptr %10, align 1, !range !4, !noundef !5
  %24 = trunc i8 %23 to i1
  br i1 %24, label %25, label %31

25:                                               ; preds = %22
  %26 = load ptr, ptr %13, align 8
  %27 = getelementptr inbounds nuw %struct.HeapScanDescData, ptr %26, i32 0, i32 0
  %28 = getelementptr inbounds nuw %struct.TableScanDescData, ptr %27, i32 0, i32 5
  %29 = load i32, ptr %28, align 8
  %30 = or i32 %29, 64
  store i32 %30, ptr %28, align 8
  br label %37

31:                                               ; preds = %22
  %32 = load ptr, ptr %13, align 8
  %33 = getelementptr inbounds nuw %struct.HeapScanDescData, ptr %32, i32 0, i32 0
  %34 = getelementptr inbounds nuw %struct.TableScanDescData, ptr %33, i32 0, i32 5
  %35 = load i32, ptr %34, align 8
  %36 = and i32 %35, -65
  store i32 %36, ptr %34, align 8
  br label %37

37:                                               ; preds = %31, %25
  %38 = load i8, ptr %11, align 1, !range !4, !noundef !5
  %39 = trunc i8 %38 to i1
  br i1 %39, label %40, label %46

40:                                               ; preds = %37
  %41 = load ptr, ptr %13, align 8
  %42 = getelementptr inbounds nuw %struct.HeapScanDescData, ptr %41, i32 0, i32 0
  %43 = getelementptr inbounds nuw %struct.TableScanDescData, ptr %42, i32 0, i32 5
  %44 = load i32, ptr %43, align 8
  %45 = or i32 %44, 128
  store i32 %45, ptr %43, align 8
  br label %52

46:                                               ; preds = %37
  %47 = load ptr, ptr %13, align 8
  %48 = getelementptr inbounds nuw %struct.HeapScanDescData, ptr %47, i32 0, i32 0
  %49 = getelementptr inbounds nuw %struct.TableScanDescData, ptr %48, i32 0, i32 5
  %50 = load i32, ptr %49, align 8
  %51 = and i32 %50, -129
  store i32 %51, ptr %49, align 8
  br label %52

52:                                               ; preds = %46, %40
  %53 = load i8, ptr %12, align 1, !range !4, !noundef !5
  %54 = trunc i8 %53 to i1
  br i1 %54, label %55, label %83

55:                                               ; preds = %52
  %56 = load ptr, ptr %13, align 8
  %57 = getelementptr inbounds nuw %struct.HeapScanDescData, ptr %56, i32 0, i32 0
  %58 = getelementptr inbounds nuw %struct.TableScanDescData, ptr %57, i32 0, i32 1
  %59 = load ptr, ptr %58, align 8
  %60 = icmp ne ptr %59, null
  br i1 %60, label %61, label %83

61:                                               ; preds = %55
  %62 = load ptr, ptr %13, align 8
  %63 = getelementptr inbounds nuw %struct.HeapScanDescData, ptr %62, i32 0, i32 0
  %64 = getelementptr inbounds nuw %struct.TableScanDescData, ptr %63, i32 0, i32 1
  %65 = load ptr, ptr %64, align 8
  %66 = getelementptr inbounds nuw %struct.SnapshotData, ptr %65, i32 0, i32 0
  %67 = load i32, ptr %66, align 8
  %68 = icmp eq i32 %67, 0
  br i1 %68, label %77, label %69

69:                                               ; preds = %61
  %70 = load ptr, ptr %13, align 8
  %71 = getelementptr inbounds nuw %struct.HeapScanDescData, ptr %70, i32 0, i32 0
  %72 = getelementptr inbounds nuw %struct.TableScanDescData, ptr %71, i32 0, i32 1
  %73 = load ptr, ptr %72, align 8
  %74 = getelementptr inbounds nuw %struct.SnapshotData, ptr %73, i32 0, i32 0
  %75 = load i32, ptr %74, align 8
  %76 = icmp eq i32 %75, 5
  br i1 %76, label %77, label %83

77:                                               ; preds = %69, %61
  %78 = load ptr, ptr %13, align 8
  %79 = getelementptr inbounds nuw %struct.HeapScanDescData, ptr %78, i32 0, i32 0
  %80 = getelementptr inbounds nuw %struct.TableScanDescData, ptr %79, i32 0, i32 5
  %81 = load i32, ptr %80, align 8
  %82 = or i32 %81, 256
  store i32 %82, ptr %80, align 8
  br label %89

83:                                               ; preds = %69, %55, %52
  %84 = load ptr, ptr %13, align 8
  %85 = getelementptr inbounds nuw %struct.HeapScanDescData, ptr %84, i32 0, i32 0
  %86 = getelementptr inbounds nuw %struct.TableScanDescData, ptr %85, i32 0, i32 5
  %87 = load i32, ptr %86, align 8
  %88 = and i32 %87, -257
  store i32 %88, ptr %86, align 8
  br label %89

89:                                               ; preds = %83, %77
  br label %90

90:                                               ; preds = %89, %6
  %91 = load ptr, ptr %13, align 8
  %92 = getelementptr inbounds nuw %struct.HeapScanDescData, ptr %91, i32 0, i32 7
  %93 = load i32, ptr %92, align 4
  %94 = call zeroext i1 @BufferIsValid(i32 noundef %93)
  br i1 %94, label %95, label %99

95:                                               ; preds = %90
  %96 = load ptr, ptr %13, align 8
  %97 = getelementptr inbounds nuw %struct.HeapScanDescData, ptr %96, i32 0, i32 7
  %98 = load i32, ptr %97, align 4
  call void @ReleaseBuffer(i32 noundef %98)
  br label %99

99:                                               ; preds = %95, %90
  %100 = load ptr, ptr %13, align 8
  %101 = getelementptr inbounds nuw %struct.HeapScanDescData, ptr %100, i32 0, i32 0
  %102 = getelementptr inbounds nuw %struct.TableScanDescData, ptr %101, i32 0, i32 5
  %103 = load i32, ptr %102, align 8
  %104 = and i32 %103, 2
  %105 = icmp ne i32 %104, 0
  br i1 %105, label %106, label %121

106:                                              ; preds = %99
  call void @llvm.lifetime.start.p0(i64 8, ptr %14) #10
  %107 = load ptr, ptr %13, align 8
  store ptr %107, ptr %14, align 8
  %108 = load ptr, ptr %14, align 8
  %109 = getelementptr inbounds nuw %struct.BitmapHeapScanDescData, ptr %108, i32 0, i32 2
  store i32 0, ptr %109, align 4
  %110 = load ptr, ptr %14, align 8
  %111 = getelementptr inbounds nuw %struct.BitmapHeapScanDescData, ptr %110, i32 0, i32 1
  %112 = load i32, ptr %111, align 8
  %113 = call zeroext i1 @BufferIsValid(i32 noundef %112)
  br i1 %113, label %114, label %120

114:                                              ; preds = %106
  %115 = load ptr, ptr %14, align 8
  %116 = getelementptr inbounds nuw %struct.BitmapHeapScanDescData, ptr %115, i32 0, i32 1
  %117 = load i32, ptr %116, align 8
  call void @ReleaseBuffer(i32 noundef %117)
  %118 = load ptr, ptr %14, align 8
  %119 = getelementptr inbounds nuw %struct.BitmapHeapScanDescData, ptr %118, i32 0, i32 1
  store i32 0, ptr %119, align 8
  br label %120

120:                                              ; preds = %114, %106
  call void @llvm.lifetime.end.p0(i64 8, ptr %14) #10
  br label %121

121:                                              ; preds = %120, %99
  %122 = load ptr, ptr %13, align 8
  %123 = getelementptr inbounds nuw %struct.HeapScanDescData, ptr %122, i32 0, i32 10
  %124 = load ptr, ptr %123, align 8
  %125 = icmp ne ptr %124, null
  br i1 %125, label %126, label %130

126:                                              ; preds = %121
  %127 = load ptr, ptr %13, align 8
  %128 = getelementptr inbounds nuw %struct.HeapScanDescData, ptr %127, i32 0, i32 10
  %129 = load ptr, ptr %128, align 8
  call void @read_stream_reset(ptr noundef %129)
  br label %130

130:                                              ; preds = %126, %121
  %131 = load ptr, ptr %13, align 8
  %132 = load ptr, ptr %8, align 8
  call void @initscan(ptr noundef %131, ptr noundef %132, i1 noundef zeroext true)
  call void @llvm.lifetime.end.p0(i64 8, ptr %13) #10
  ret void
}