; Function Attrs: nounwind uwtable
define dso_local void @heap_rescan(ptr noundef captures(none) initializes((64, 68), (72, 77), (80, 84), (100, 106), (112, 120), (128, 136), (144, 152)) %0, ptr noundef captures(address_is_null) %1, i1 noundef zeroext %2, i1 noundef zeroext %3, i1 noundef zeroext %4, i1 noundef zeroext %5) local_unnamed_addr #2 {
  br i1 %2, label %7, label %24

7:                                                ; preds = %6
  %8 = getelementptr inbounds nuw i8, ptr %0, i64 48
  %9 = load i32, ptr %8, align 8
  %10 = and i32 %9, -193
  %masksel = select i1 %3, i32 64, i32 0
  %11 = or disjoint i32 %10, %masksel
  %12 = getelementptr inbounds nuw i8, ptr %0, i64 48
  %masksel31 = select i1 %4, i32 128, i32 0
  %.sink = or disjoint i32 %11, %masksel31
  store i32 %.sink, ptr %12, align 8
  br i1 %5, label %13, label %21

13:                                               ; preds = %7
  %14 = getelementptr inbounds nuw i8, ptr %0, i64 8
  %15 = load ptr, ptr %14, align 8
  %.not = icmp eq ptr %15, null
  br i1 %.not, label %21, label %16

16:                                               ; preds = %13
  %17 = load i32, ptr %15, align 8
  switch i32 %17, label %21 [
    i32 0, label %18
    i32 5, label %18
  ]

18:                                               ; preds = %16, %16
  %19 = getelementptr inbounds nuw i8, ptr %0, i64 48
  %20 = or i32 %.sink, 256
  store i32 %20, ptr %19, align 8
  br label %24

21:                                               ; preds = %16, %13, %7
  %22 = getelementptr inbounds nuw i8, ptr %0, i64 48
  %23 = and i32 %.sink, -257
  store i32 %23, ptr %22, align 8
  br label %24

24:                                               ; preds = %18, %21, %6
  %25 = getelementptr inbounds nuw i8, ptr %0, i64 84
  %26 = load i32, ptr %25, align 4
  %.not29 = icmp eq i32 %26, 0
  br i1 %.not29, label %28, label %27

27:                                               ; preds = %24
  tail call void @ReleaseBuffer(i32 noundef %26) #13
  br label %28

28:                                               ; preds = %27, %24
  %29 = getelementptr inbounds nuw i8, ptr %0, i64 48
  %30 = load i32, ptr %29, align 8
  %31 = and i32 %30, 2
  %.not27 = icmp eq i32 %31, 0
  br i1 %.not27, label %37, label %32

32:                                               ; preds = %28
  %33 = getelementptr inbounds nuw i8, ptr %0, i64 740
  store i32 0, ptr %33, align 4
  %34 = getelementptr inbounds nuw i8, ptr %0, i64 736
  %35 = load i32, ptr %34, align 8
  %.not30 = icmp eq i32 %35, 0
  br i1 %.not30, label %37, label %36

36:                                               ; preds = %32
  tail call void @ReleaseBuffer(i32 noundef %35) #13
  store i32 0, ptr %34, align 8
  br label %37

37:                                               ; preds = %32, %36, %28
  %38 = getelementptr inbounds nuw i8, ptr %0, i64 120
  %39 = load ptr, ptr %38, align 8
  %.not28 = icmp eq ptr %39, null
  br i1 %.not28, label %41, label %40

40:                                               ; preds = %37
  tail call void @read_stream_reset(ptr noundef nonnull %39) #13
  br label %41

41:                                               ; preds = %40, %37
  tail call fastcc void @initscan(ptr noundef nonnull %0, ptr noundef %1, i1 noundef zeroext true)
  ret void
}